target datalayout = "e-m:e-p270:32:32-p271:32:32-p272:64:64-i64:64-i128:128-f80:128-n8:16:32:64-S128"
target triple = "x86_64-pc-linux-gnu"

%struct.AVFilterContext = type { ptr, ptr, ptr, ptr, ptr, i32, ptr, ptr, i32, ptr, ptr, i32, i32, ptr, ptr, ptr, ptr, i32, ptr, i32, i32 }
%struct.SetParamsContext = type { ptr, i32, i32, i32, i32, i32, i32 }
%struct.AVFilterFormatsConfig = type { ptr, ptr, ptr, ptr, ptr }

; Function Attrs: nounwind uwtable
define internal i32 @query_formats(ptr noundef %0, ptr noundef %1, ptr noundef %2) #0 {
  %4 = alloca i32, align 4
  %5 = alloca ptr, align 8
  %6 = alloca ptr, align 8
  %7 = alloca ptr, align 8
  %8 = alloca ptr, align 8
  %9 = alloca i32, align 4
  %10 = alloca i32, align 4
  store ptr %0, ptr %5, align 8, !tbaa !4
  store ptr %1, ptr %6, align 8, !tbaa !9
  store ptr %2, ptr %7, align 8, !tbaa !9
  call void @llvm.lifetime.start.p0(i64 8, ptr %8) #4
  %11 = load ptr, ptr %5, align 8, !tbaa !4
  %12 = getelementptr inbounds nuw %struct.AVFilterContext, ptr %11, i32 0, i32 9
  %13 = load ptr, ptr %12, align 8, !tbaa !12
  store ptr %13, ptr %8, align 8, !tbaa !24
  call void @llvm.lifetime.start.p0(i64 4, ptr %9) #4
  %14 = load ptr, ptr %8, align 8, !tbaa !24
  %15 = getelementptr inbounds nuw %struct.SetParamsContext, ptr %14, i32 0, i32 5
  %16 = load i32, ptr %15, align 8, !tbaa !26
  %17 = icmp sge i32 %16, 0
  br i1 %17, label %18, label %33

18:                                               ; preds = %3
  %19 = load ptr, ptr %8, align 8, !tbaa !24
  %20 = getelementptr inbounds nuw %struct.SetParamsContext, ptr %19, i32 0, i32 5
  %21 = load i32, ptr %20, align 8, !tbaa !26
  %22 = call ptr @ff_make_formats_list_singleton(i32 noundef %21)
  %23 = load ptr, ptr %7, align 8, !tbaa !9
  %24 = getelementptr inbounds ptr, ptr %23, i64 0
  %25 = load ptr, ptr %24, align 8, !tbaa !28
  %26 = getelementptr inbounds nuw %struct.AVFilterFormatsConfig, ptr %25, i32 0, i32 3
  %27 = call i32 @ff_formats_ref(ptr noundef %22, ptr noundef %26)
  store i32 %27, ptr %9, align 4, !tbaa !30
  %28 = load i32, ptr %9, align 4, !tbaa !30
  %29 = icmp slt i32 %28, 0
  br i1 %29, label %30, label %32

30:                                               ; preds = %18
  %31 = load i32, ptr %9, align 4, !tbaa !30
  store i32 %31, ptr %4, align 4
  store i32 1, ptr %10, align 4
  br label %54

32:                                               ; preds = %18
  br label %33

33:                                               ; preds = %32, %3
  %34 = load ptr, ptr %8, align 8, !tbaa !24
  %35 = getelementptr inbounds nuw %struct.SetParamsContext, ptr %34, i32 0, i32 2
  %36 = load i32, ptr %35, align 4, !tbaa !31
  %37 = icmp sge i32 %36, 0
  br i1 %37, label %38, label %53

38:                                               ; preds = %33
  %39 = load ptr, ptr %8, align 8, !tbaa !24
  %40 = getelementptr inbounds nuw %struct.SetParamsContext, ptr %39, i32 0, i32 2
  %41 = load i32, ptr %40, align 4, !tbaa !31
  %42 = call ptr @ff_make_formats_list_singleton(i32 noundef %41)
  %43 = load ptr, ptr %7, align 8, !tbaa !9
  %44 = getelementptr inbounds ptr, ptr %43, i64 0
  %45 = load ptr, ptr %44, align 8, !tbaa !28
  %46 = getelementptr inbounds nuw %struct.AVFilterFormatsConfig, ptr %45, i32 0, i32 4
  %47 = call i32 @ff_formats_ref(ptr noundef %42, ptr noundef %46)
  store i32 %47, ptr %9, align 4, !tbaa !30
  %48 = load i32, ptr %9, align 4, !tbaa !30
  %49 = icmp slt i32 %48, 0
  br i1 %49, label %50, label %52

50:                                               ; preds = %38
  %51 = load i32, ptr %9, align 4, !tbaa !30
  store i32 %51, ptr %4, align 4
  store i32 1, ptr %10, align 4
  br label %54

52:                                               ; preds = %38
  br label %53

53:                                               ; preds = %52, %33
  store i32 0, ptr %4, align 4
  store i32 1, ptr %10, align 4
  br label %54

54:                                               ; preds = %53, %50, %30
  call void @llvm.lifetime.end.p0(i64 4, ptr %9) #4
  call void @llvm.lifetime.end.p0(i64 8, ptr %8) #4
  %55 = load i32, ptr %4, align 4
  ret i32 %55
}