; Function Attrs: nounwind uwtable
define internal range(i32 -2147483648, 1) i32 @query_formats(ptr noundef readonly captures(none) %0, ptr readnone captures(none) %1, ptr noundef readonly captures(none) %2) #0 {
  %4 = getelementptr inbounds nuw i8, ptr %0, i64 72
  %5 = load ptr, ptr %4, align 8, !tbaa !4
  %6 = getelementptr inbounds nuw i8, ptr %5, i64 24
  %7 = load i32, ptr %6, align 8, !tbaa !20
  %8 = icmp sgt i32 %7, -1
  br i1 %8, label %9, label %15

9:                                                ; preds = %3
  %10 = tail call ptr @ff_make_formats_list_singleton(i32 noundef %7) #4
  %11 = load ptr, ptr %2, align 8, !tbaa !22
  %12 = getelementptr inbounds nuw i8, ptr %11, i64 24
  %13 = tail call i32 @ff_formats_ref(ptr noundef %10, ptr noundef nonnull %12) #4
  %14 = icmp slt i32 %13, 0
  br i1 %14, label %26, label %15

15:                                               ; preds = %9, %3
  %16 = getelementptr inbounds nuw i8, ptr %5, i64 12
  %17 = load i32, ptr %16, align 4, !tbaa !24
  %18 = icmp sgt i32 %17, -1
  br i1 %18, label %19, label %25

19:                                               ; preds = %15
  %20 = tail call ptr @ff_make_formats_list_singleton(i32 noundef %17) #4
  %21 = load ptr, ptr %2, align 8, !tbaa !22
  %22 = getelementptr inbounds nuw i8, ptr %21, i64 32
  %23 = tail call i32 @ff_formats_ref(ptr noundef %20, ptr noundef nonnull %22) #4
  %24 = icmp slt i32 %23, 0
  br i1 %24, label %26, label %25

25:                                               ; preds = %19, %15
  br label %26

26:                                               ; preds = %19, %9, %25
  %.0 = phi i32 [ 0, %25 ], [ %13, %9 ], [ %23, %19 ]
  ret i32 %.0
}